#include <math.h>
#include <stdio.h>
#include <stdlib.h>
#include <string.h>

int m(int n)
{
    if (n%100!=0)
    {
                 if(n%4==0)
                 return(1);
                 else
                 return(0);
    }
    else
    {
        if(n%400==0)
        return(1);
        else
        return(0);
    }
    
}
main()
{
      int a,b,c,x;
      scanf("%d %d %d",&a,&b,&c);
      if(m(a)==1)
      {
                 if(b==1)
                 x=c;
                 if(b==2)
                 x=31+c;
                 if(b==3)
                 x=60+c;
                 if(b==4)
                 x=91+c;
                 if(b==5)
                 x=121+c;
                 if(b==6)
                 x=152+c;
                 if(b==7)
                 x=182+c;
                 if(b==8)
                 x=213+c;
                 if(b==9)
                 x=244+c;
                 if(b==10)
                 x=274+c;
                 if(b==11)
                 x=305+c;
                 if(b==12)
                 x=335+c;
              printf("%d",x);
      }
      else
      {
          if(b==1)
                 x=c;
                 if(b==2)
                 x=31+c;
                 if(b==3)
                 x=59+c;
                 if(b==4)
                 x=90+c;
                 if(b==5)
                 x=120+c;
                 if(b==6)
                 x=151+c;
                 if(b==7)
                 x=181+c;
                 if(b==8)
                 x=212+c;
                 if(b==9)
                 x=243+c;
                 if(b==10)
                 x=273+c;
                 if(b==11)
                 x=304+c;
                 if(b==12)
                 x=334+c;
                printf("%d",x);
      }
      getchar();
      getchar();
}